; Function Attrs: nounwind uwtable
define internal fastcc i32 @hwloc_set_area_membind_by_nodeset(ptr noundef %0, ptr noundef %1, i64 noundef %2, ptr noundef %3, i32 noundef %4, i32 noundef %5) unnamed_addr #0 {
  %.not = icmp ugt i32 %5, 63
  %or.cond9.i = icmp ugt i32 %4, 5
  %or.cond = or i1 %or.cond9.i, %.not
  br i1 %or.cond, label %7, label %9

7:                                                ; preds = %6
  %8 = tail call ptr @__errno_location() #12
  store i32 22, ptr %8, align 4, !tbaa !3
  br label %hwloc_fix_membind.exit.thread

9:                                                ; preds = %6
  %.not17 = icmp eq i64 %2, 0
  br i1 %.not17, label %hwloc_fix_membind.exit.thread, label %10

10:                                               ; preds = %9
  %11 = tail call ptr @hwloc_topology_get_topology_nodeset(ptr noundef readonly %0) #13
  %12 = tail call ptr @hwloc_topology_get_complete_nodeset(ptr noundef readonly %0) #13
  %13 = tail call i32 @hwloc_bitmap_iszero(ptr noundef readonly %3) #13
  %.not.i = icmp eq i32 %13, 0
  br i1 %.not.i, label %16, label %14

14:                                               ; preds = %10
  %15 = tail call ptr @__errno_location() #12
  store i32 22, ptr %15, align 4, !tbaa !3
  br label %hwloc_fix_membind.exit.thread

16:                                               ; preds = %10
  %17 = tail call i32 @hwloc_bitmap_isincluded(ptr noundef readonly %3, ptr noundef %12) #13
  %.not10.i = icmp eq i32 %17, 0
  br i1 %.not10.i, label %18, label %hwloc_fix_membind.exit

18:                                               ; preds = %16
  %19 = tail call ptr @__errno_location() #12
  store i32 22, ptr %19, align 4, !tbaa !3
  br label %hwloc_fix_membind.exit.thread

hwloc_fix_membind.exit:                           ; preds = %16
  %20 = tail call i32 @hwloc_bitmap_isincluded(ptr noundef %11, ptr noundef readonly %3) #13
  %.not11.i = icmp eq i32 %20, 0
  %..i20 = select i1 %.not11.i, ptr %3, ptr %12
  %.not18 = icmp eq ptr %..i20, null
  br i1 %.not18, label %hwloc_fix_membind.exit.thread, label %21

21:                                               ; preds = %hwloc_fix_membind.exit
  %22 = getelementptr inbounds nuw i8, ptr %0, i64 600
  %23 = load ptr, ptr %22, align 8, !tbaa !61
  %.not19 = icmp eq ptr %23, null
  br i1 %.not19, label %26, label %24

24:                                               ; preds = %21
  %25 = tail call i32 %23(ptr noundef nonnull %0, ptr noundef %1, i64 noundef %2, ptr noundef nonnull %..i20, i32 noundef %4, i32 noundef %5) #14
  br label %hwloc_fix_membind.exit.thread

26:                                               ; preds = %21
  %27 = tail call ptr @__errno_location() #12
  store i32 38, ptr %27, align 4, !tbaa !3
  br label %hwloc_fix_membind.exit.thread

hwloc_fix_membind.exit.thread:                    ; preds = %18, %14, %hwloc_fix_membind.exit, %9, %26, %24, %7
  %.0 = phi i32 [ -1, %7 ], [ %25, %24 ], [ -1, %26 ], [ 0, %9 ], [ -1, %hwloc_fix_membind.exit ], [ -1, %14 ], [ -1, %18 ]
  ret i32 %.0
}